; Function Attrs: mustprogress uwtable
define dso_local noundef zeroext i1 @_ZNK3net16QuicCryptoStream32ExportTokenBindingKeyingMaterialEPNSt7__cxx1112basic_stringIcSt11char_traitsIcESaIcEEE(ptr noundef nonnull align 8 dereferenceable(1048) %this, ptr noundef %result) local_unnamed_addr #0 align 2 personality ptr @__gxx_personality_v0 {
entry:
  %ref.tmp3 = alloca %"class.logging::LogMessage", align 8
  %agg.tmp = alloca %"class.base::BasicStringPiece", align 8
  %agg.tmp13 = alloca %"class.base::BasicStringPiece", align 8
  %agg.tmp14 = alloca %"class.base::BasicStringPiece", align 8
  %encryption_established_.i = getelementptr inbounds i8, ptr %this, i64 392
  %0 = load i8, ptr %encryption_established_.i, align 8
  %1 = and i8 %0, 1
  %tobool.i.not = icmp eq i8 %1, 0
  br i1 %tobool.i.not, label %if.then, label %if.end

if.then:                                          ; preds = %entry
  %call2 = tail call noundef zeroext i1 @_ZN7logging22ShouldCreateLogMessageEi(i32 noundef 2)
  br i1 %call2, label %cond.false, label %return

cond.false:                                       ; preds = %if.then
  call void @_ZN7logging10LogMessageC1EPKcii(ptr noundef nonnull align 8 dereferenceable(404) %ref.tmp3, ptr noundef nonnull @.str, i32 noundef 100, i32 noundef 2)
  %stream_.i = getelementptr inbounds i8, ptr %ref.tmp3, i64 8
  %call6 = invoke noundef nonnull align 8 dereferenceable(8) ptr @_ZStlsISt11char_traitsIcEERSt13basic_ostreamIcT_ES5_PKc(ptr noundef nonnull align 8 dereferenceable(8) %stream_.i, ptr noundef nonnull @.str.1)
          to label %invoke.cont5 unwind label %lpad

invoke.cont5:                                     ; preds = %cond.false
  %call8 = invoke noundef nonnull align 8 dereferenceable(8) ptr @_ZStlsISt11char_traitsIcEERSt13basic_ostreamIcT_ES5_PKc(ptr noundef nonnull align 8 dereferenceable(8) %call6, ptr noundef nonnull @.str.2)
          to label %cleanup.action unwind label %lpad

cleanup.action:                                   ; preds = %invoke.cont5
  call void @_ZN7logging10LogMessageD1Ev(ptr noundef nonnull align 8 dereferenceable(404) %ref.tmp3) #8
  br label %return

lpad:                                             ; preds = %invoke.cont5, %cond.false
  %2 = landingpad { ptr, i32 }
          cleanup
  call void @_ZN7logging10LogMessageD1Ev(ptr noundef nonnull align 8 dereferenceable(404) %ref.tmp3) #8
  resume { ptr, i32 } %2

if.end:                                           ; preds = %entry
  %initial_subkey_secret = getelementptr inbounds i8, ptr %this, i64 472
  call void @_ZN4base16BasicStringPieceINSt7__cxx1112basic_stringIcSt11char_traitsIcESaIcEEEEC1ERKS6_(ptr noundef nonnull align 8 dereferenceable(16) %agg.tmp, ptr noundef nonnull align 8 dereferenceable(32) %initial_subkey_secret)
  call void @_ZN4base16BasicStringPieceINSt7__cxx1112basic_stringIcSt11char_traitsIcESaIcEEEEC1EPKc(ptr noundef nonnull align 8 dereferenceable(16) %agg.tmp13, ptr noundef nonnull @.str.3)
  call void @_ZN4base16BasicStringPieceINSt7__cxx1112basic_stringIcSt11char_traitsIcESaIcEEEEC1EPKc(ptr noundef nonnull align 8 dereferenceable(16) %agg.tmp14, ptr noundef nonnull @.str.4)
  %3 = load ptr, ptr %agg.tmp, align 8
  %4 = getelementptr inbounds i8, ptr %agg.tmp, i64 8
  %5 = load i64, ptr %4, align 8
  %6 = load ptr, ptr %agg.tmp13, align 8
  %7 = getelementptr inbounds i8, ptr %agg.tmp13, i64 8
  %8 = load i64, ptr %7, align 8
  %9 = load ptr, ptr %agg.tmp14, align 8
  %10 = getelementptr inbounds i8, ptr %agg.tmp14, i64 8
  %11 = load i64, ptr %10, align 8
  %call15 = call noundef zeroext i1 @_ZN3net11CryptoUtils20ExportKeyingMaterialEN4base16BasicStringPieceINSt7__cxx1112basic_stringIcSt11char_traitsIcESaIcEEEEES9_S9_mPS8_(ptr %3, i64 %5, ptr %6, i64 %8, ptr %9, i64 %11, i64 noundef 32, ptr noundef %result)
  br label %return

return:                                           ; preds = %cleanup.action, %if.then, %if.end
  %retval.0 = phi i1 [ %call15, %if.end ], [ false, %if.then ], [ false, %cleanup.action ]
  ret i1 %retval.0
}